; Function Attrs: nounwind uwtable
define internal noundef i32 @file_done(ptr noundef readonly captures(none) %0, i32 %1, i1 zeroext %2) #0 {
  %4 = getelementptr inbounds nuw i8, ptr %0, i64 440
  %5 = load ptr, ptr %4, align 8, !tbaa !7
  %.not = icmp eq ptr %5, null
  br i1 %.not, label %15, label %6

6:                                                ; preds = %3
  %7 = load ptr, ptr @Curl_cfree, align 8, !tbaa !3
  %8 = getelementptr inbounds nuw i8, ptr %5, i64 8
  %9 = load ptr, ptr %8, align 8, !tbaa !106
  tail call void %7(ptr noundef %9) #8
  %10 = getelementptr inbounds nuw i8, ptr %5, i64 16
  tail call void @llvm.memset.p0.i64(ptr noundef nonnull align 8 dereferenceable(16) %5, i8 0, i64 16, i1 false)
  %11 = load i32, ptr %10, align 8, !tbaa !89
  %.not9 = icmp eq i32 %11, -1
  br i1 %.not9, label %14, label %12

12:                                               ; preds = %6
  %13 = tail call i32 @close(i32 noundef %11) #8
  br label %14

14:                                               ; preds = %12, %6
  store i32 -1, ptr %10, align 8, !tbaa !89
  br label %15

15:                                               ; preds = %14, %3
  ret i32 0
}